target datalayout = "e-m:e-p270:32:32-p271:32:32-p272:64:64-i64:64-i128:128-f80:128-n8:16:32:64-S128"
target triple = "x86_64-pc-linux-gnu"

%"class.clang::CFGStmtMap" = type { ptr, ptr }
%"class.llvm::DenseMap" = type <{ ptr, i32, i32, i32, [4 x i8] }>
%"struct.std::pair" = type { ptr, ptr }
%"struct.llvm::detail::DenseMapPair" = type { %"struct.std::pair" }

; Function Attrs: mustprogress nounwind uwtable
define linkonce_odr hidden noundef ptr @_ZNK4llvm8DenseMapIPKN5clang4StmtEPNS1_8CFGBlockENS_12DenseMapInfoIS4_vEENS_6detail12DenseMapPairIS4_S6_EEE10getBucketsEv(ptr noundef nonnull align 8 dereferenceable(20) %0) #0 comdat align 2 {
  %2 = alloca ptr, align 8
  store ptr %0, ptr %2, align 8
  %3 = load ptr, ptr %2, align 8
  %4 = getelementptr inbounds nuw %"class.llvm::DenseMap", ptr %3, i32 0, i32 0
  %5 = load ptr, ptr %4, align 8
  ret ptr %5
}

; Function Attrs: mustprogress nounwind uwtable
define linkonce_odr hidden noundef ptr @_ZN4llvm12DenseMapInfoIPKN5clang4StmtEvE15getTombstoneKeyEv() #0 comdat align 2 {
  %1 = alloca i64, align 8
  store i64 -2, ptr %1, align 8
  %2 = load i64, ptr %1, align 8
  %3 = shl i64 %2, 12
  store i64 %3, ptr %1, align 8
  %4 = load i64, ptr %1, align 8
  %5 = inttoptr i64 %4 to ptr
  ret ptr %5
}

; Function Attrs: mustprogress nounwind uwtable
define linkonce_odr hidden noundef ptr @_ZN4llvm12DenseMapInfoIPKN5clang4StmtEvE11getEmptyKeyEv() #0 comdat align 2 {
  %1 = alloca i64, align 8
  store i64 -1, ptr %1, align 8
  %2 = load i64, ptr %1, align 8
  %3 = shl i64 %2, 12
  store i64 %3, ptr %1, align 8
  %4 = load i64, ptr %1, align 8
  %5 = inttoptr i64 %4 to ptr
  ret ptr %5
}

; Function Attrs: mustprogress nounwind uwtable
define linkonce_odr hidden noundef i32 @_ZNK4llvm8DenseMapIPKN5clang4StmtEPNS1_8CFGBlockENS_12DenseMapInfoIS4_vEENS_6detail12DenseMapPairIS4_S6_EEE13getNumBucketsEv(ptr noundef nonnull align 8 dereferenceable(20) %0) #0 comdat align 2 {
  %2 = alloca ptr, align 8
  store ptr %0, ptr %2, align 8
  %3 = load ptr, ptr %2, align 8
  %4 = getelementptr inbounds nuw %"class.llvm::DenseMap", ptr %3, i32 0, i32 3
  %5 = load i32, ptr %4, align 8
  ret i32 %5
}

; Function Attrs: mustprogress nounwind uwtable
define linkonce_odr hidden noundef nonnull align 8 dereferenceable(8) ptr @_ZN4llvm6detail12DenseMapPairIPKN5clang4StmtEPNS2_8CFGBlockEE9getSecondEv(ptr noundef nonnull align 8 dereferenceable(16) %0) #0 comdat align 2 {
  %2 = alloca ptr, align 8
  store ptr %0, ptr %2, align 8
  %3 = load ptr, ptr %2, align 8
  %4 = getelementptr inbounds nuw %"struct.std::pair", ptr %3, i32 0, i32 1
  ret ptr %4
}

; Function Attrs: mustprogress nounwind uwtable
define linkonce_odr hidden noundef zeroext i1 @_ZN4llvm12DenseMapInfoIPKN5clang4StmtEvE7isEqualES4_S4_(ptr noundef %0, ptr noundef %1) #0 comdat align 2 {
  %3 = alloca ptr, align 8
  %4 = alloca ptr, align 8
  store ptr %0, ptr %3, align 8
  store ptr %1, ptr %4, align 8
  %5 = load ptr, ptr %3, align 8
  %6 = load ptr, ptr %4, align 8
  %7 = icmp eq ptr %5, %6
  ret i1 %7
}

; Function Attrs: mustprogress nounwind uwtable
define linkonce_odr hidden noundef nonnull align 8 dereferenceable(8) ptr @_ZN4llvm6detail12DenseMapPairIPKN5clang4StmtEPNS2_8CFGBlockEE8getFirstEv(ptr noundef nonnull align 8 dereferenceable(16) %0) #0 comdat align 2 {
  %2 = alloca ptr, align 8
  store ptr %0, ptr %2, align 8
  %3 = load ptr, ptr %2, align 8
  %4 = getelementptr inbounds nuw %"struct.std::pair", ptr %3, i32 0, i32 0
  ret ptr %4
}

; Function Attrs: mustprogress nounwind uwtable
define linkonce_odr hidden noundef ptr @_ZN4llvm12DenseMapBaseINS_8DenseMapIPKN5clang4StmtEPNS2_8CFGBlockENS_12DenseMapInfoIS5_vEENS_6detail12DenseMapPairIS5_S7_EEEES5_S7_S9_SC_E13getBucketsEndEv(ptr noundef nonnull align 1 dereferenceable(1) %0) #0 comdat align 2 {
  %2 = alloca ptr, align 8
  store ptr %0, ptr %2, align 8
  %3 = load ptr, ptr %2, align 8
  %4 = call noundef ptr @_ZN4llvm12DenseMapBaseINS_8DenseMapIPKN5clang4StmtEPNS2_8CFGBlockENS_12DenseMapInfoIS5_vEENS_6detail12DenseMapPairIS5_S7_EEEES5_S7_S9_SC_E10getBucketsEv(ptr noundef nonnull align 1 dereferenceable(1) %3)
  %5 = call noundef i32 @_ZNK4llvm12DenseMapBaseINS_8DenseMapIPKN5clang4StmtEPNS2_8CFGBlockENS_12DenseMapInfoIS5_vEENS_6detail12DenseMapPairIS5_S7_EEEES5_S7_S9_SC_E13getNumBucketsEv(ptr noundef nonnull align 1 dereferenceable(1) %3)
  %6 = zext i32 %5 to i64
  %7 = getelementptr inbounds %"struct.llvm::detail::DenseMapPair", ptr %4, i64 %6
  ret ptr %7
}

; Function Attrs: mustprogress nounwind uwtable
define linkonce_odr hidden noundef ptr @_ZN4llvm12DenseMapBaseINS_8DenseMapIPKN5clang4StmtEPNS2_8CFGBlockENS_12DenseMapInfoIS5_vEENS_6detail12DenseMapPairIS5_S7_EEEES5_S7_S9_SC_E10getBucketsEv(ptr noundef nonnull align 1 dereferenceable(1) %0) #0 comdat align 2 {
  %2 = alloca ptr, align 8
  store ptr %0, ptr %2, align 8
  %3 = load ptr, ptr %2, align 8
  %4 = call noundef ptr @_ZNK4llvm8DenseMapIPKN5clang4StmtEPNS1_8CFGBlockENS_12DenseMapInfoIS4_vEENS_6detail12DenseMapPairIS4_S6_EEE10getBucketsEv(ptr noundef nonnull align 8 dereferenceable(20) %3)
  ret ptr %4
}

; Function Attrs: mustprogress nounwind uwtable
define linkonce_odr hidden noundef ptr @_ZN4llvm12DenseMapBaseINS_8DenseMapIPKN5clang4StmtEPNS2_8CFGBlockENS_12DenseMapInfoIS5_vEENS_6detail12DenseMapPairIS5_S7_EEEES5_S7_S9_SC_E15getTombstoneKeyEv() #0 comdat align 2 {
  %1 = call noundef ptr @_ZN4llvm12DenseMapInfoIPKN5clang4StmtEvE15getTombstoneKeyEv()
  ret ptr %1
}

; Function Attrs: mustprogress nounwind uwtable
define linkonce_odr hidden noundef ptr @_ZN4llvm12DenseMapBaseINS_8DenseMapIPKN5clang4StmtEPNS2_8CFGBlockENS_12DenseMapInfoIS5_vEENS_6detail12DenseMapPairIS5_S7_EEEES5_S7_S9_SC_E11getEmptyKeyEv() #0 comdat align 2 {
  %1 = call noundef ptr @_ZN4llvm12DenseMapInfoIPKN5clang4StmtEvE11getEmptyKeyEv()
  ret ptr %1
}

; Function Attrs: mustprogress nounwind uwtable
define linkonce_odr hidden noundef i32 @_ZNK4llvm12DenseMapBaseINS_8DenseMapIPKN5clang4StmtEPNS2_8CFGBlockENS_12DenseMapInfoIS5_vEENS_6detail12DenseMapPairIS5_S7_EEEES5_S7_S9_SC_E13getNumBucketsEv(ptr noundef nonnull align 1 dereferenceable(1) %0) #0 comdat align 2 {
  %2 = alloca ptr, align 8
  store ptr %0, ptr %2, align 8
  %3 = load ptr, ptr %2, align 8
  %4 = call noundef i32 @_ZNK4llvm8DenseMapIPKN5clang4StmtEPNS1_8CFGBlockENS_12DenseMapInfoIS4_vEENS_6detail12DenseMapPairIS4_S6_EEE13getNumBucketsEv(ptr noundef nonnull align 8 dereferenceable(20) %3)
  ret i32 %4
}

; Function Attrs: mustprogress nounwind uwtable
define linkonce_odr hidden void @_ZN4llvm12DenseMapBaseINS_8DenseMapIPKN5clang4StmtEPNS2_8CFGBlockENS_12DenseMapInfoIS5_vEENS_6detail12DenseMapPairIS5_S7_EEEES5_S7_S9_SC_E10destroyAllEv(ptr noundef nonnull align 1 dereferenceable(1) %0) #0 comdat align 2 {
  %2 = alloca ptr, align 8
  %3 = alloca ptr, align 8
  %4 = alloca ptr, align 8
  %5 = alloca ptr, align 8
  %6 = alloca ptr, align 8
  store ptr %0, ptr %2, align 8
  %7 = load ptr, ptr %2, align 8
  %8 = call noundef i32 @_ZNK4llvm12DenseMapBaseINS_8DenseMapIPKN5clang4StmtEPNS2_8CFGBlockENS_12DenseMapInfoIS5_vEENS_6detail12DenseMapPairIS5_S7_EEEES5_S7_S9_SC_E13getNumBucketsEv(ptr noundef nonnull align 1 dereferenceable(1) %7)
  %9 = icmp eq i32 %8, 0
  br i1 %9, label %10, label %11

10:                                               ; preds = %1
  br label %41

11:                                               ; preds = %1
  %12 = call noundef ptr @_ZN4llvm12DenseMapBaseINS_8DenseMapIPKN5clang4StmtEPNS2_8CFGBlockENS_12DenseMapInfoIS5_vEENS_6detail12DenseMapPairIS5_S7_EEEES5_S7_S9_SC_E11getEmptyKeyEv()
  store ptr %12, ptr %3, align 8
  %13 = call noundef ptr @_ZN4llvm12DenseMapBaseINS_8DenseMapIPKN5clang4StmtEPNS2_8CFGBlockENS_12DenseMapInfoIS5_vEENS_6detail12DenseMapPairIS5_S7_EEEES5_S7_S9_SC_E15getTombstoneKeyEv()
  store ptr %13, ptr %4, align 8
  %14 = call noundef ptr @_ZN4llvm12DenseMapBaseINS_8DenseMapIPKN5clang4StmtEPNS2_8CFGBlockENS_12DenseMapInfoIS5_vEENS_6detail12DenseMapPairIS5_S7_EEEES5_S7_S9_SC_E10getBucketsEv(ptr noundef nonnull align 1 dereferenceable(1) %7)
  store ptr %14, ptr %5, align 8
  %15 = call noundef ptr @_ZN4llvm12DenseMapBaseINS_8DenseMapIPKN5clang4StmtEPNS2_8CFGBlockENS_12DenseMapInfoIS5_vEENS_6detail12DenseMapPairIS5_S7_EEEES5_S7_S9_SC_E13getBucketsEndEv(ptr noundef nonnull align 1 dereferenceable(1) %7)
  store ptr %15, ptr %6, align 8
  br label %16

16:                                               ; preds = %38, %11
  %17 = load ptr, ptr %5, align 8
  %18 = load ptr, ptr %6, align 8
  %19 = icmp ne ptr %17, %18
  br i1 %19, label %20, label %41

20:                                               ; preds = %16
  %21 = load ptr, ptr %5, align 8
  %22 = call noundef nonnull align 8 dereferenceable(8) ptr @_ZN4llvm6detail12DenseMapPairIPKN5clang4StmtEPNS2_8CFGBlockEE8getFirstEv(ptr noundef nonnull align 8 dereferenceable(16) %21)
  %23 = load ptr, ptr %22, align 8
  %24 = load ptr, ptr %3, align 8
  %25 = call noundef zeroext i1 @_ZN4llvm12DenseMapInfoIPKN5clang4StmtEvE7isEqualES4_S4_(ptr noundef %23, ptr noundef %24)
  br i1 %25, label %35, label %26

26:                                               ; preds = %20
  %27 = load ptr, ptr %5, align 8
  %28 = call noundef nonnull align 8 dereferenceable(8) ptr @_ZN4llvm6detail12DenseMapPairIPKN5clang4StmtEPNS2_8CFGBlockEE8getFirstEv(ptr noundef nonnull align 8 dereferenceable(16) %27)
  %29 = load ptr, ptr %28, align 8
  %30 = load ptr, ptr %4, align 8
  %31 = call noundef zeroext i1 @_ZN4llvm12DenseMapInfoIPKN5clang4StmtEvE7isEqualES4_S4_(ptr noundef %29, ptr noundef %30)
  br i1 %31, label %35, label %32

32:                                               ; preds = %26
  %33 = load ptr, ptr %5, align 8
  %34 = call noundef nonnull align 8 dereferenceable(8) ptr @_ZN4llvm6detail12DenseMapPairIPKN5clang4StmtEPNS2_8CFGBlockEE9getSecondEv(ptr noundef nonnull align 8 dereferenceable(16) %33)
  br label %35

35:                                               ; preds = %32, %26, %20
  %36 = load ptr, ptr %5, align 8
  %37 = call noundef nonnull align 8 dereferenceable(8) ptr @_ZN4llvm6detail12DenseMapPairIPKN5clang4StmtEPNS2_8CFGBlockEE8getFirstEv(ptr noundef nonnull align 8 dereferenceable(16) %36)
  br label %38

38:                                               ; preds = %35
  %39 = load ptr, ptr %5, align 8
  %40 = getelementptr inbounds %"struct.llvm::detail::DenseMapPair", ptr %39, i32 1
  store ptr %40, ptr %5, align 8
  br label %16, !llvm.loop !11

41:                                               ; preds = %16, %10
  ret void
}

; Function Attrs: mustprogress nounwind uwtable
define linkonce_odr hidden void @_ZN4llvm8DenseMapIPKN5clang4StmtEPNS1_8CFGBlockENS_12DenseMapInfoIS4_vEENS_6detail12DenseMapPairIS4_S6_EEED2Ev(ptr noundef nonnull align 8 dereferenceable(20) %0) unnamed_addr #0 comdat align 2 {
  %2 = alloca ptr, align 8
  store ptr %0, ptr %2, align 8
  %3 = load ptr, ptr %2, align 8
  call void @_ZN4llvm12DenseMapBaseINS_8DenseMapIPKN5clang4StmtEPNS2_8CFGBlockENS_12DenseMapInfoIS5_vEENS_6detail12DenseMapPairIS5_S7_EEEES5_S7_S9_SC_E10destroyAllEv(ptr noundef nonnull align 1 dereferenceable(1) %3)
  %4 = getelementptr inbounds nuw %"class.llvm::DenseMap", ptr %3, i32 0, i32 0
  %5 = load ptr, ptr %4, align 8
  %6 = getelementptr inbounds nuw %"class.llvm::DenseMap", ptr %3, i32 0, i32 3
  %7 = load i32, ptr %6, align 8
  %8 = zext i32 %7 to i64
  %9 = mul i64 16, %8
  call void @_ZN4llvm17deallocate_bufferEPvmm(ptr noundef %5, i64 noundef %9, i64 noundef 8)
  ret void
}

; Function Attrs: mustprogress nounwind uwtable
define internal noundef ptr @_ZL5AsMapPv(ptr noundef %0) #0 {
  %2 = alloca ptr, align 8
  store ptr %0, ptr %2, align 8
  %3 = load ptr, ptr %2, align 8
  ret ptr %3
}

; Function Attrs: mustprogress nounwind uwtable
define dso_local void @_ZN5clang10CFGStmtMapD2Ev(ptr noundef nonnull align 8 dereferenceable(16) %0) unnamed_addr #0 align 2 {
  %2 = alloca ptr, align 8
  store ptr %0, ptr %2, align 8
  %3 = load ptr, ptr %2, align 8
  %4 = getelementptr inbounds nuw %"class.clang::CFGStmtMap", ptr %3, i32 0, i32 1
  %5 = load ptr, ptr %4, align 8
  %6 = call noundef ptr @_ZL5AsMapPv(ptr noundef %5)
  %7 = icmp eq ptr %6, null
  br i1 %7, label %9, label %8

8:                                                ; preds = %1
  call void @_ZN4llvm8DenseMapIPKN5clang4StmtEPNS1_8CFGBlockENS_12DenseMapInfoIS4_vEENS_6detail12DenseMapPairIS4_S6_EEED2Ev(ptr noundef nonnull align 8 dereferenceable(20) %6) #5
  call void @_ZdlPvm(ptr noundef %6, i64 noundef 24) #6
  br label %9

9:                                                ; preds = %8, %1
  ret void
}