; Function Attrs: mustprogress nounwind uwtable
define dso_local void @_ZN5clang10CFGStmtMapD2Ev(ptr nocapture noundef nonnull readonly align 8 dereferenceable(16) %0) unnamed_addr #0 align 2 {
  %2 = getelementptr inbounds nuw i8, ptr %0, i64 8
  %3 = load ptr, ptr %2, align 8
  %4 = icmp eq ptr %3, null
  br i1 %4, label %11, label %5

5:                                                ; preds = %1
  %6 = load ptr, ptr %3, align 8
  %7 = getelementptr inbounds nuw i8, ptr %3, i64 16
  %8 = load i32, ptr %7, align 8
  %9 = zext i32 %8 to i64
  %10 = shl nuw nsw i64 %9, 4
  tail call void @_ZN4llvm17deallocate_bufferEPvmm(ptr noundef %6, i64 noundef %10, i64 noundef 8) #8
  tail call void @_ZdlPvm(ptr noundef nonnull %3, i64 noundef 24) #9
  br label %11

11:                                               ; preds = %5, %1
  ret void
}